target datalayout = "e-m:e-p270:32:32-p271:32:32-p272:64:64-i64:64-i128:128-f80:128-n8:16:32:64-S128"
target triple = "x86_64-pc-linux-gnu"

%struct._object = type { %union.anon, ptr }
%union.anon = type { i64 }
%struct.PyVarObject = type { %struct._object, i64 }

; Function Attrs: inlinehint nounwind uwtable
define internal i64 @Py_SIZE(ptr noundef %0) #2 {
  %2 = alloca ptr, align 8
  store ptr %0, ptr %2, align 8, !tbaa !22
  %3 = load ptr, ptr %2, align 8, !tbaa !22
  %4 = getelementptr inbounds nuw %struct.PyVarObject, ptr %3, i32 0, i32 1
  %5 = load i64, ptr %4, align 8, !tbaa !80
  ret i64 %5
}

; Function Attrs: inlinehint nounwind uwtable
define internal i64 @PyTuple_GET_SIZE(ptr noundef %0) #2 {
  %2 = alloca ptr, align 8
  %3 = alloca ptr, align 8
  store ptr %0, ptr %2, align 8, !tbaa !22
  call void @llvm.lifetime.start.p0(i64 8, ptr %3) #8
  %4 = load ptr, ptr %2, align 8, !tbaa !22
  store ptr %4, ptr %3, align 8, !tbaa !3
  %5 = load ptr, ptr %3, align 8, !tbaa !3
  %6 = call i64 @Py_SIZE(ptr noundef %5)
  call void @llvm.lifetime.end.p0(i64 8, ptr %3) #8
  ret i64 %6
}

; Function Attrs: nounwind uwtable
define internal ptr @pysqlite_connection_cursor(ptr noundef %0, ptr noundef %1, i64 noundef %2, ptr noundef %3) #0 {
  %5 = alloca ptr, align 8
  %6 = alloca ptr, align 8
  %7 = alloca i64, align 8
  %8 = alloca ptr, align 8
  %9 = alloca ptr, align 8
  %10 = alloca [1 x ptr], align 8
  %11 = alloca i64, align 8
  %12 = alloca ptr, align 8
  store ptr %0, ptr %5, align 8, !tbaa !22
  store ptr %1, ptr %6, align 8, !tbaa !43
  store i64 %2, ptr %7, align 8, !tbaa !39
  store ptr %3, ptr %8, align 8, !tbaa !22
  call void @llvm.lifetime.start.p0(i64 8, ptr %9) #8
  store ptr null, ptr %9, align 8, !tbaa !22
  call void @llvm.lifetime.start.p0(i64 8, ptr %10) #8
  call void @llvm.lifetime.start.p0(i64 8, ptr %11) #8
  %13 = load i64, ptr %7, align 8, !tbaa !39
  %14 = load ptr, ptr %8, align 8, !tbaa !22
  %15 = icmp ne ptr %14, null
  br i1 %15, label %16, label %19

16:                                               ; preds = %4
  %17 = load ptr, ptr %8, align 8, !tbaa !22
  %18 = call i64 @PyTuple_GET_SIZE(ptr noundef %17)
  br label %20

19:                                               ; preds = %4
  br label %20

20:                                               ; preds = %19, %16
  %21 = phi i64 [ %18, %16 ], [ 0, %19 ]
  %22 = add i64 %13, %21
  %23 = sub i64 %22, 0
  store i64 %23, ptr %11, align 8, !tbaa !39
  call void @llvm.lifetime.start.p0(i64 8, ptr %12) #8
  store ptr null, ptr %12, align 8, !tbaa !22
  %24 = load ptr, ptr %8, align 8, !tbaa !22
  %25 = icmp eq ptr %24, null
  br i1 %25, label %26, label %37

26:                                               ; preds = %20
  %27 = load i64, ptr %7, align 8, !tbaa !39
  %28 = icmp sle i64 0, %27
  br i1 %28, label %29, label %37

29:                                               ; preds = %26
  %30 = load i64, ptr %7, align 8, !tbaa !39
  %31 = icmp sle i64 %30, 1
  br i1 %31, label %32, label %37

32:                                               ; preds = %29
  %33 = load ptr, ptr %6, align 8, !tbaa !43
  %34 = icmp ne ptr %33, null
  br i1 %34, label %35, label %37

35:                                               ; preds = %32
  %36 = load ptr, ptr %6, align 8, !tbaa !43
  br label %43

37:                                               ; preds = %32, %29, %26, %20
  %38 = load ptr, ptr %6, align 8, !tbaa !43
  %39 = load i64, ptr %7, align 8, !tbaa !39
  %40 = load ptr, ptr %8, align 8, !tbaa !22
  %41 = getelementptr inbounds [1 x ptr], ptr %10, i64 0, i64 0
  %42 = call ptr @_PyArg_UnpackKeywords(ptr noundef %38, i64 noundef %39, ptr noundef null, ptr noundef %40, ptr noundef @pysqlite_connection_cursor._parser, i32 noundef 0, i32 noundef 1, i32 noundef 0, i32 noundef 0, ptr noundef %41)
  br label %43

43:                                               ; preds = %37, %35
  %44 = phi ptr [ %36, %35 ], [ %42, %37 ]
  store ptr %44, ptr %6, align 8, !tbaa !43
  %45 = load ptr, ptr %6, align 8, !tbaa !43
  %46 = icmp ne ptr %45, null
  br i1 %46, label %48, label %47

47:                                               ; preds = %43
  br label %60

48:                                               ; preds = %43
  %49 = load i64, ptr %11, align 8, !tbaa !39
  %50 = icmp ne i64 %49, 0
  br i1 %50, label %52, label %51

51:                                               ; preds = %48
  br label %56

52:                                               ; preds = %48
  %53 = load ptr, ptr %6, align 8, !tbaa !43
  %54 = getelementptr ptr, ptr %53, i64 0
  %55 = load ptr, ptr %54, align 8, !tbaa !22
  store ptr %55, ptr %12, align 8, !tbaa !22
  br label %56

56:                                               ; preds = %52, %51
  %57 = load ptr, ptr %5, align 8, !tbaa !22
  %58 = load ptr, ptr %12, align 8, !tbaa !22
  %59 = call ptr @pysqlite_connection_cursor_impl(ptr noundef %57, ptr noundef %58)
  store ptr %59, ptr %9, align 8, !tbaa !22
  br label %60

60:                                               ; preds = %56, %47
  %61 = load ptr, ptr %9, align 8, !tbaa !22
  call void @llvm.lifetime.end.p0(i64 8, ptr %12) #8
  call void @llvm.lifetime.end.p0(i64 8, ptr %11) #8
  call void @llvm.lifetime.end.p0(i64 8, ptr %10) #8
  call void @llvm.lifetime.end.p0(i64 8, ptr %9) #8
  ret ptr %61
}