; Function Attrs: nounwind uwtable
define internal ptr @pysqlite_connection_cursor(ptr noundef %0, ptr noundef %1, i64 noundef %2, ptr noundef %3) #0 {
  %5 = alloca [1 x ptr], align 8
  call void @llvm.lifetime.start.p0(i64 8, ptr nonnull %5) #7
  %.not = icmp eq ptr %3, null
  br i1 %.not, label %7, label %.thread

.thread:                                          ; preds = %4
  %6 = getelementptr i8, ptr %3, i64 16
  %.val = load i64, ptr %6, align 8, !tbaa !35
  br label %10

7:                                                ; preds = %4
  %8 = icmp ult i64 %2, 2
  %9 = icmp ne ptr %1, null
  %or.cond5 = and i1 %9, %8
  br i1 %or.cond5, label %.thread29, label %10

10:                                               ; preds = %7, %.thread
  %11 = phi i64 [ %.val, %.thread ], [ 0, %7 ]
  %12 = call ptr @_PyArg_UnpackKeywords(ptr noundef %1, i64 noundef %2, ptr noundef null, ptr noundef %3, ptr noundef nonnull @pysqlite_connection_cursor._parser, i32 noundef 0, i32 noundef 1, i32 noundef 0, i32 noundef 0, ptr noundef nonnull %5) #7
  %.not25 = icmp eq ptr %12, null
  br i1 %.not25, label %20, label %.thread29

.thread29:                                        ; preds = %7, %10
  %13 = phi ptr [ %12, %10 ], [ %1, %7 ]
  %14 = phi i64 [ %11, %10 ], [ 0, %7 ]
  %15 = sub i64 0, %14
  %.not26 = icmp eq i64 %2, %15
  br i1 %.not26, label %18, label %16

16:                                               ; preds = %.thread29
  %17 = load ptr, ptr %13, align 8, !tbaa !25
  br label %18

18:                                               ; preds = %.thread29, %16
  %.0 = phi ptr [ %17, %16 ], [ null, %.thread29 ]
  %19 = call fastcc ptr @pysqlite_connection_cursor_impl(ptr noundef %0, ptr noundef %.0)
  br label %20

20:                                               ; preds = %10, %18
  %.021 = phi ptr [ %19, %18 ], [ null, %10 ]
  call void @llvm.lifetime.end.p0(i64 8, ptr nonnull %5) #7
  ret ptr %.021
}